Certificate:
    Data:
        Version: 3 (0x2)
        Serial Number: 8195 (0x2003)
        Signature Algorithm: ecdsa-with-SHA384
        Issuer: O=Thoom Security, CN=CA-Thoom-Intermediate
        Validity
            Not Before: May  9 15:24:37 2026 GMT
            Not After : May  8 15:24:37 2031 GMT
        Subject: O=Thoom Security, CN=Slot-9e
        Subject Public Key Info:
            Public Key Algorithm: id-ecPublicKey
                Public-Key: (256 bit)
                pub:
                    04:20:e1:57:25:77:63:e3:43:4e:f8:13:d1:93:05:
                    7d:83:5f:6d:31:0c:eb:ba:a7:7a:9d:54:b2:77:e6:
                    89:c5:58:f2:6d:4e:0e:48:50:e1:e9:0c:b8:b8:1c:
                    30:7d:30:7b:1b:b2:3b:42:ef:7d:04:5a:9c:a4:12:
                    f1:44:01:47:e5
                ASN1 OID: prime256v1
                NIST CURVE: P-256
        X509v3 extensions:
            X509v3 Basic Constraints: 
                CA:FALSE
            X509v3 Key Usage: critical
                Digital Signature
            X509v3 Extended Key Usage: 
                TLS Web Client Authentication
            X509v3 Subject Key Identifier: 
                68:01:64:01:A1:68:FE:E1:50:16:0D:6F:79:74:9F:FF:55:7A:2B:D2
            X509v3 Authority Key Identifier: 
                74:1F:D0:00:A5:7C:69:07:97:18:41:F0:C4:44:18:21:D7:04:1B:EE
            X509v3 CRL Distribution Points: 
                Full Name:
                  URI:https://nathom78.github.io/Thomas-PKI/intermediate-ecc/crl/intermediate-crl.pem

            Authority Information Access: 
                CA Issuers - URI:https://nathom78.github.io/Thomas-PKI/intermediate-ecc/certs/intermediate-cert.pem
            X509v3 Subject Alternative Name: 
                0.....+...........SSH Key
    Signature Algorithm: ecdsa-with-SHA384
    Signature Value:
        30:66:02:31:00:a8:61:2e:1d:15:9e:bc:7a:41:3e:73:21:5c:
        97:e1:16:3b:ea:81:3b:81:b1:e4:0b:c2:7f:45:1a:45:57:88:
        ab:59:b0:c7:ca:6c:28:ae:45:63:78:fe:d9:9b:e3:1b:74:02:
        31:00:e4:ae:b7:2c:d7:76:22:ad:a0:f8:8d:5d:8f:81:50:f4:
        ba:21:eb:3d:fc:b3:40:8c:c3:5f:4d:2d:7b:0c:16:92:1d:f4:
        bd:10:84:83:05:81:47:bc:5a:28:11:85:3a:dd
-----BEGIN CERTIFICATE-----
MIIC3zCCAmSgAwIBAgICIAMwCgYIKoZIzj0EAwMwOTEXMBUGA1UECgwOVGhvb20g
U2VjdXJpdHkxHjAcBgNVBAMMFUNBLVRob29tLUludGVybWVkaWF0ZTAeFw0yNjA1
MDkxNTI0MzdaFw0zMTA1MDgxNTI0MzdaMCsxFzAVBgNVBAoMDlRob29tIFNlY3Vy
aXR5MRAwDgYDVQQDDAdTbG90LTllMFkwEwYHKoZIzj0CAQYIKoZIzj0DAQcDQgAE
IOFXJXdj40NO+BPRkwV9g19tMQzruqd6nVSyd+aJxVjybU4OSFDh6Qy4uBwwfTB7
G7I7Qu99BFqcpBLxRAFH5aOCAWgwggFkMAkGA1UdEwQCMAAwDgYDVR0PAQH/BAQD
AgeAMBMGA1UdJQQMMAoGCCsGAQUFBwMCMB0GA1UdDgQWBBRoAWQBoWj+4VAWDW95
dJ//VXor0jAfBgNVHSMEGDAWgBR0H9AApXxpB5cYQfDERBgh1wQb7jBgBgNVHR8E
WTBXMFWgU6BRhk9odHRwczovL25hdGhvbTc4LmdpdGh1Yi5pby9UaG9tYXMtUEtJ
L2ludGVybWVkaWF0ZS1lY2MvY3JsL2ludGVybWVkaWF0ZS1jcmwucGVtMG4GCCsG
AQUFBwEBBGIwYDBeBggrBgEFBQcwAoZSaHR0cHM6Ly9uYXRob203OC5naXRodWIu
aW8vVGhvbWFzLVBLSS9pbnRlcm1lZGlhdGUtZWNjL2NlcnRzL2ludGVybWVkaWF0
ZS1jZXJ0LnBlbTAgBgNVHREEGTAXoBUGCCsGAQUFBwgHoAkMB1NTSCBLZXkwCgYI
KoZIzj0EAwMDaQAwZgIxAKhhLh0Vnrx6QT5zIVyX4RY76oE7gbHkC8J/RRpFV4ir
WbDHymworkVjeP7Zm+MbdAIxAOSutyzXdiKtoPiNXY+BUPS6Ies9/LNAjMNfTS17
DBaSHfS9EISDBYFHvFooEYU63Q==
-----END CERTIFICATE-----
