Certificate:
    Data:
        Version: 3 (0x2)
        Serial Number: 8193 (0x2001)
        Signature Algorithm: ecdsa-with-SHA384
        Issuer: O=Thoom Security, CN=CA-Thoom-Intermediate
        Validity
            Not Before: May  9 15:23:59 2026 GMT
            Not After : May  8 15:23:59 2031 GMT
        Subject: O=Thoom Security, CN=Slot-9c
        Subject Public Key Info:
            Public Key Algorithm: id-ecPublicKey
                Public-Key: (384 bit)
                pub:
                    04:32:9f:9f:06:37:d8:50:d6:7a:28:f6:35:58:b6:
                    a5:39:ca:62:98:7f:a5:9e:91:38:b8:a9:69:1c:e9:
                    80:8f:7d:21:e2:ab:95:02:11:1d:3d:ec:00:b2:b2:
                    e0:ac:08:f5:65:30:ce:b8:b5:47:42:16:f6:0e:f6:
                    34:a1:94:d2:f2:d9:1b:74:6a:ba:3a:ff:67:1f:bd:
                    ff:05:56:42:a9:bb:98:ee:ff:d6:0d:da:01:14:a3:
                    80:c2:5d:b2:05:78:db
                ASN1 OID: secp384r1
                NIST CURVE: P-384
        X509v3 extensions:
            X509v3 Basic Constraints: 
                CA:FALSE
            X509v3 Key Usage: critical
                Digital Signature
            X509v3 Extended Key Usage: 
                Code Signing, 1.3.6.1.4.1.311.10.3.12
            X509v3 Subject Key Identifier: 
                B6:1F:46:19:98:EB:2A:02:27:07:DE:51:68:B3:2F:D8:10:D9:26:BD
            X509v3 Authority Key Identifier: 
                74:1F:D0:00:A5:7C:69:07:97:18:41:F0:C4:44:18:21:D7:04:1B:EE
            X509v3 CRL Distribution Points: 
                Full Name:
                  URI:https://nathom78.github.io/Thomas-PKI/intermediate-ecc/crl/intermediate-crl.pem

            Authority Information Access: 
                CA Issuers - URI:https://nathom78.github.io/Thomas-PKI/intermediate-ecc/certs/intermediate-cert.pem
    Signature Algorithm: ecdsa-with-SHA384
    Signature Value:
        30:65:02:30:29:30:cc:58:7a:b5:f5:09:a5:4b:e2:90:cb:50:
        ab:3f:f9:78:e0:dd:35:d6:d8:16:89:5d:a6:f6:1c:7a:61:19:
        e9:63:c7:7c:8a:a6:54:48:3e:23:dc:e7:0f:7b:b9:c8:02:31:
        00:98:49:de:5e:ea:ea:22:01:49:41:18:57:98:ac:5d:ff:77:
        1e:3c:e5:89:18:b9:95:30:5a:49:b3:f9:de:ed:b2:7e:58:c9:
        4f:c9:a3:2b:cb:73:d1:72:73:54:9c:61:5b
-----BEGIN CERTIFICATE-----
MIIC5TCCAmugAwIBAgICIAEwCgYIKoZIzj0EAwMwOTEXMBUGA1UECgwOVGhvb20g
U2VjdXJpdHkxHjAcBgNVBAMMFUNBLVRob29tLUludGVybWVkaWF0ZTAeFw0yNjA1
MDkxNTIzNTlaFw0zMTA1MDgxNTIzNTlaMCsxFzAVBgNVBAoMDlRob29tIFNlY3Vy
aXR5MRAwDgYDVQQDDAdTbG90LTljMHYwEAYHKoZIzj0CAQYFK4EEACIDYgAEMp+f
BjfYUNZ6KPY1WLalOcpimH+lnpE4uKlpHOmAj30h4quVAhEdPewAsrLgrAj1ZTDO
uLVHQhb2DvY0oZTS8tkbdGq6Ov9nH73/BVZCqbuY7v/WDdoBFKOAwl2yBXjbo4IB
UjCCAU4wCQYDVR0TBAIwADAOBgNVHQ8BAf8EBAMCB4AwHwYDVR0lBBgwFgYIKwYB
BQUHAwMGCisGAQQBgjcKAwwwHQYDVR0OBBYEFLYfRhmY6yoCJwfeUWizL9gQ2Sa9
MB8GA1UdIwQYMBaAFHQf0AClfGkHlxhB8MREGCHXBBvuMGAGA1UdHwRZMFcwVaBT
oFGGT2h0dHBzOi8vbmF0aG9tNzguZ2l0aHViLmlvL1Rob21hcy1QS0kvaW50ZXJt
ZWRpYXRlLWVjYy9jcmwvaW50ZXJtZWRpYXRlLWNybC5wZW0wbgYIKwYBBQUHAQEE
YjBgMF4GCCsGAQUFBzAChlJodHRwczovL25hdGhvbTc4LmdpdGh1Yi5pby9UaG9t
YXMtUEtJL2ludGVybWVkaWF0ZS1lY2MvY2VydHMvaW50ZXJtZWRpYXRlLWNlcnQu
cGVtMAoGCCqGSM49BAMDA2gAMGUCMCkwzFh6tfUJpUvikMtQqz/5eODdNdbYFold
pvYcemEZ6WPHfIqmVEg+I9znD3u5yAIxAJhJ3l7q6iIBSUEYV5isXf93HjzliRi5
lTBaSbP53u2yfljJT8mjK8tz0XJzVJxhWw==
-----END CERTIFICATE-----
