Certificate:
    Data:
        Version: 3 (0x2)
        Serial Number: 8196 (0x2004)
        Signature Algorithm: ecdsa-with-SHA384
        Issuer: O=Thoom Security, CN=CA-Thoom-Intermediate
        Validity
            Not Before: May 11 14:28:18 2026 GMT
            Not After : May 10 14:28:18 2031 GMT
        Subject: O=Thoom Security, CN=Slot-9a
        Subject Public Key Info:
            Public Key Algorithm: id-ecPublicKey
                Public-Key: (384 bit)
                pub:
                    04:64:44:49:f9:8a:19:ff:7d:1e:a5:d7:62:4a:35:
                    06:fe:88:eb:27:d7:b0:cd:69:bf:c8:eb:38:96:49:
                    ed:97:78:0e:73:85:e5:0e:d5:8f:f3:4d:9c:2c:b9:
                    67:75:09:ec:d7:3d:d7:07:c8:c2:e0:6e:32:56:08:
                    58:93:f1:5a:f1:ab:48:dd:46:0b:7f:af:e9:51:25:
                    d9:21:b0:3b:77:4d:4d:ca:37:c7:b9:e1:d7:20:d4:
                    0f:26:1d:aa:bd:67:72
                ASN1 OID: secp384r1
                NIST CURVE: P-384
        X509v3 extensions:
            X509v3 Basic Constraints: 
                CA:FALSE
            X509v3 Key Usage: critical
                Digital Signature, Key Agreement
            X509v3 Extended Key Usage: 
                TLS Web Client Authentication, Microsoft Smartcard Login, 1.3.6.1.4.1.311.67.1.1
            X509v3 Subject Key Identifier: 
                9D:D0:87:90:E5:EA:BC:B6:5B:13:DD:C2:3B:41:2E:D6:E0:CC:A0:63
            X509v3 Authority Key Identifier: 
                74:1F:D0:00:A5:7C:69:07:97:18:41:F0:C4:44:18:21:D7:04:1B:EE
            X509v3 CRL Distribution Points: 
                Full Name:
                  URI:https://nathom78.github.io/Thomas-PKI/intermediate-ecc/crl/intermediate-crl.pem

            Authority Information Access: 
                CA Issuers - URI:https://nathom78.github.io/Thomas-PKI/intermediate-ecc/certs/intermediate-cert.pem
    Signature Algorithm: ecdsa-with-SHA384
    Signature Value:
        30:65:02:31:00:d9:ad:91:90:32:5b:c5:a7:19:0e:31:c2:f8:
        1b:b7:2a:bf:c9:eb:83:0e:5b:e5:da:28:c7:47:77:80:c6:d1:
        c7:01:03:b3:db:99:43:f5:6b:02:28:0d:1a:e9:d8:1a:d8:02:
        30:5f:06:82:0f:46:2b:d2:f8:b0:31:25:9a:71:37:21:93:d4:
        6c:32:d3:d1:6d:63:75:74:fb:76:40:6b:bb:b2:76:0a:04:20:
        2b:3d:5c:1d:c9:cc:7c:46:71:1c:60:9e:74
-----BEGIN CERTIFICATE-----
MIIC8TCCAnegAwIBAgICIAQwCgYIKoZIzj0EAwMwOTEXMBUGA1UECgwOVGhvb20g
U2VjdXJpdHkxHjAcBgNVBAMMFUNBLVRob29tLUludGVybWVkaWF0ZTAeFw0yNjA1
MTExNDI4MThaFw0zMTA1MTAxNDI4MThaMCsxFzAVBgNVBAoMDlRob29tIFNlY3Vy
aXR5MRAwDgYDVQQDDAdTbG90LTlhMHYwEAYHKoZIzj0CAQYFK4EEACIDYgAEZERJ
+YoZ/30epddiSjUG/ojrJ9ewzWm/yOs4lkntl3gOc4XlDtWP802cLLlndQns1z3X
B8jC4G4yVghYk/Fa8atI3UYLf6/pUSXZIbA7d01NyjfHueHXINQPJh2qvWdyo4IB
XjCCAVowCQYDVR0TBAIwADAOBgNVHQ8BAf8EBAMCA4gwKwYDVR0lBCQwIgYIKwYB
BQUHAwIGCisGAQQBgjcUAgIGCisGAQQBgjdDAQEwHQYDVR0OBBYEFJ3Qh5Dl6ry2
WxPdwjtBLtbgzKBjMB8GA1UdIwQYMBaAFHQf0AClfGkHlxhB8MREGCHXBBvuMGAG
A1UdHwRZMFcwVaBToFGGT2h0dHBzOi8vbmF0aG9tNzguZ2l0aHViLmlvL1Rob21h
cy1QS0kvaW50ZXJtZWRpYXRlLWVjYy9jcmwvaW50ZXJtZWRpYXRlLWNybC5wZW0w
bgYIKwYBBQUHAQEEYjBgMF4GCCsGAQUFBzAChlJodHRwczovL25hdGhvbTc4Lmdp
dGh1Yi5pby9UaG9tYXMtUEtJL2ludGVybWVkaWF0ZS1lY2MvY2VydHMvaW50ZXJt
ZWRpYXRlLWNlcnQucGVtMAoGCCqGSM49BAMDA2gAMGUCMQDZrZGQMlvFpxkOMcL4
G7cqv8nrgw5b5doox0d3gMbRxwEDs9uZQ/VrAigNGunYGtgCMF8Ggg9GK9L4sDEl
mnE3IZPUbDLT0W1jdXT7dkBru7J2CgQgKz1cHcnMfEZxHGCedA==
-----END CERTIFICATE-----
