Certificate:
    Data:
        Version: 3 (0x2)
        Serial Number: 8192 (0x2000)
        Signature Algorithm: ecdsa-with-SHA384
        Issuer: O=Thoom Security, CN=CA-Thoom-Intermediate
        Validity
            Not Before: May  9 15:23:46 2026 GMT
            Not After : May  8 15:23:46 2031 GMT
        Subject: O=Thoom Security, CN=Slot-9a
        Subject Public Key Info:
            Public Key Algorithm: id-ecPublicKey
                Public-Key: (384 bit)
                pub:
                    04:f2:09:27:60:46:0c:38:e9:28:20:cc:d0:76:92:
                    cb:d5:8f:30:12:c0:04:cd:67:f5:4f:8f:93:70:20:
                    b5:10:62:50:9e:41:4f:9f:9d:dc:ba:04:8c:d2:70:
                    f7:56:cf:c5:da:e2:27:b4:8f:ce:99:17:51:40:27:
                    f8:a9:82:ac:eb:e4:69:7f:34:bb:33:67:83:e9:15:
                    cf:d6:f3:96:c8:65:16:3c:a9:11:54:01:c7:86:fc:
                    19:18:82:10:34:39:b3
                ASN1 OID: secp384r1
                NIST CURVE: P-384
        X509v3 extensions:
            X509v3 Basic Constraints: 
                CA:FALSE
            X509v3 Key Usage: critical
                Digital Signature
            X509v3 Extended Key Usage: 
                TLS Web Client Authentication, Microsoft Smartcard Login, 1.3.6.1.4.1.311.67.1.1
            X509v3 Subject Key Identifier: 
                9E:30:06:C1:96:12:7C:62:33:13:87:2A:44:65:A2:E1:5C:08:4D:29
            X509v3 Authority Key Identifier: 
                74:1F:D0:00:A5:7C:69:07:97:18:41:F0:C4:44:18:21:D7:04:1B:EE
            X509v3 CRL Distribution Points: 
                Full Name:
                  URI:https://nathom78.github.io/Thomas-PKI/intermediate-ecc/crl/intermediate-crl.pem

            Authority Information Access: 
                CA Issuers - URI:https://nathom78.github.io/Thomas-PKI/intermediate-ecc/certs/intermediate-cert.pem
    Signature Algorithm: ecdsa-with-SHA384
    Signature Value:
        30:66:02:31:00:c8:63:41:dd:e6:da:2c:18:42:ac:23:5e:d6:
        1f:19:4e:f3:80:7c:f1:c0:54:84:8e:39:bb:04:e1:c7:a5:f7:
        6f:63:86:5d:0d:95:6e:ac:12:4d:ea:31:db:0e:3b:1b:f4:02:
        31:00:fc:2b:cd:df:51:7b:6e:b8:12:04:f9:a2:47:2a:1d:90:
        80:c2:d5:fb:5e:2d:84:2f:46:49:42:27:2e:1a:ac:1e:46:fa:
        c9:8f:d1:2e:51:0d:1c:29:fb:02:95:72:c9:38
-----BEGIN CERTIFICATE-----
MIIC8jCCAnegAwIBAgICIAAwCgYIKoZIzj0EAwMwOTEXMBUGA1UECgwOVGhvb20g
U2VjdXJpdHkxHjAcBgNVBAMMFUNBLVRob29tLUludGVybWVkaWF0ZTAeFw0yNjA1
MDkxNTIzNDZaFw0zMTA1MDgxNTIzNDZaMCsxFzAVBgNVBAoMDlRob29tIFNlY3Vy
aXR5MRAwDgYDVQQDDAdTbG90LTlhMHYwEAYHKoZIzj0CAQYFK4EEACIDYgAE8gkn
YEYMOOkoIMzQdpLL1Y8wEsAEzWf1T4+TcCC1EGJQnkFPn53cugSM0nD3Vs/F2uIn
tI/OmRdRQCf4qYKs6+RpfzS7M2eD6RXP1vOWyGUWPKkRVAHHhvwZGIIQNDmzo4IB
XjCCAVowCQYDVR0TBAIwADAOBgNVHQ8BAf8EBAMCB4AwKwYDVR0lBCQwIgYIKwYB
BQUHAwIGCisGAQQBgjcUAgIGCisGAQQBgjdDAQEwHQYDVR0OBBYEFJ4wBsGWEnxi
MxOHKkRlouFcCE0pMB8GA1UdIwQYMBaAFHQf0AClfGkHlxhB8MREGCHXBBvuMGAG
A1UdHwRZMFcwVaBToFGGT2h0dHBzOi8vbmF0aG9tNzguZ2l0aHViLmlvL1Rob21h
cy1QS0kvaW50ZXJtZWRpYXRlLWVjYy9jcmwvaW50ZXJtZWRpYXRlLWNybC5wZW0w
bgYIKwYBBQUHAQEEYjBgMF4GCCsGAQUFBzAChlJodHRwczovL25hdGhvbTc4Lmdp
dGh1Yi5pby9UaG9tYXMtUEtJL2ludGVybWVkaWF0ZS1lY2MvY2VydHMvaW50ZXJt
ZWRpYXRlLWNlcnQucGVtMAoGCCqGSM49BAMDA2kAMGYCMQDIY0Hd5tosGEKsI17W
HxlO84B88cBUhI45uwThx6X3b2OGXQ2VbqwSTeox2w47G/QCMQD8K83fUXtuuBIE
+aJHKh2QgMLV+14thC9GSUInLhqsHkb6yY/RLlENHCn7ApVyyTg=
-----END CERTIFICATE-----
