Certificate:
    Data:
        Version: 3 (0x2)
        Serial Number: 4096 (0x1000)
        Signature Algorithm: ecdsa-with-SHA384
        Issuer: CN=CA-Root_Thoom
        Validity
            Not Before: May  7 16:27:31 2026 GMT
            Not After : May  4 16:27:31 2036 GMT
        Subject: O=Thoom Security, CN=CA-Thoom-Intermediate
        Subject Public Key Info:
            Public Key Algorithm: id-ecPublicKey
                Public-Key: (384 bit)
                pub:
                    04:e6:be:a9:a6:80:6e:fe:cb:74:3e:25:5a:73:e1:
                    d9:9d:44:5e:10:a7:86:ee:c8:5a:6b:f3:10:50:fb:
                    54:c4:a3:1f:87:51:e9:0d:f4:32:46:b1:b1:27:09:
                    93:71:ef:72:fb:ec:ed:c3:09:d6:9d:5c:33:43:c8:
                    9b:9c:fd:78:b4:23:ce:c7:38:53:b1:1a:21:56:bb:
                    0a:3e:d9:27:93:86:c6:47:91:d6:60:cb:ab:a2:e1:
                    b4:55:61:99:c6:d0:bc
                ASN1 OID: secp384r1
                NIST CURVE: P-384
        X509v3 extensions:
            X509v3 Basic Constraints: critical
                CA:TRUE, pathlen:0
            X509v3 Key Usage: critical
                Certificate Sign, CRL Sign
            X509v3 Subject Key Identifier: 
                74:1F:D0:00:A5:7C:69:07:97:18:41:F0:C4:44:18:21:D7:04:1B:EE
            X509v3 Authority Key Identifier: 
                A1:E6:6A:80:0E:96:8F:30:7D:A7:DD:80:E7:96:F8:96:F8:0D:08:E3
            X509v3 CRL Distribution Points: 
                Full Name:
                  URI:https://nathom78.github.io/Thomas-PKI/intermediate-ecc/crl/intermediate-crl.pem

            Authority Information Access: 
                CA Issuers - URI:https://nathom78.github.io/Thomas-PKI/root-ecc/certs/root-cert.pem
    Signature Algorithm: ecdsa-with-SHA384
    Signature Value:
        30:65:02:31:00:94:3e:c3:1f:d4:77:3a:f7:d7:8c:70:fa:e8:
        c8:99:83:18:ab:c2:e2:75:69:2b:d3:dc:56:1b:60:b6:b5:c1:
        5b:c0:84:3c:ab:be:d7:f1:6f:8c:13:66:69:c8:de:49:d6:02:
        30:46:fd:e3:a5:01:b8:56:a3:c2:31:ad:c7:f7:49:44:15:63:
        e8:62:8b:15:bb:5e:f5:00:ad:84:6d:1e:c4:90:89:7e:f7:b3:
        f1:18:aa:8e:bc:eb:d8:fd:3a:35:0d:a0:50
-----BEGIN CERTIFICATE-----
MIICqjCCAjCgAwIBAgICEAAwCgYIKoZIzj0EAwMwGDEWMBQGA1UEAwwNQ0EtUm9v
dF9UaG9vbTAeFw0yNjA1MDcxNjI3MzFaFw0zNjA1MDQxNjI3MzFaMDkxFzAVBgNV
BAoMDlRob29tIFNlY3VyaXR5MR4wHAYDVQQDDBVDQS1UaG9vbS1JbnRlcm1lZGlh
dGUwdjAQBgcqhkjOPQIBBgUrgQQAIgNiAATmvqmmgG7+y3Q+JVpz4dmdRF4Qp4bu
yFpr8xBQ+1TEox+HUekN9DJGsbEnCZNx73L77O3DCdadXDNDyJuc/Xi0I87HOFOx
GiFWuwo+2SeThsZHkdZgy6ui4bRVYZnG0LyjggEqMIIBJjASBgNVHRMBAf8ECDAG
AQH/AgEAMA4GA1UdDwEB/wQEAwIBBjAdBgNVHQ4EFgQUdB/QAKV8aQeXGEHwxEQY
IdcEG+4wHwYDVR0jBBgwFoAUoeZqgA6WjzB9p92A55b4lvgNCOMwYAYDVR0fBFkw
VzBVoFOgUYZPaHR0cHM6Ly9uYXRob203OC5naXRodWIuaW8vVGhvbWFzLVBLSS9p
bnRlcm1lZGlhdGUtZWNjL2NybC9pbnRlcm1lZGlhdGUtY3JsLnBlbTBeBggrBgEF
BQcBAQRSMFAwTgYIKwYBBQUHMAKGQmh0dHBzOi8vbmF0aG9tNzguZ2l0aHViLmlv
L1Rob21hcy1QS0kvcm9vdC1lY2MvY2VydHMvcm9vdC1jZXJ0LnBlbTAKBggqhkjO
PQQDAwNoADBlAjEAlD7DH9R3OvfXjHD66MiZgxirwuJ1aSvT3FYbYLa1wVvAhDyr
vtfxb4wTZmnI3knWAjBG/eOlAbhWo8Ixrcf3SUQVY+hiixW7XvUArYRtHsSQiX73
s/EYqo6869j9OjUNoFA=
-----END CERTIFICATE-----
