Certificate:
    Data:
        Version: 3 (0x2)
        Serial Number: 8194 (0x2002)
        Signature Algorithm: ecdsa-with-SHA384
        Issuer: O=Thoom Security, CN=CA-Thoom-Intermediate
        Validity
            Not Before: May  9 15:24:27 2026 GMT
            Not After : May  8 15:24:27 2031 GMT
        Subject: O=Thoom Security, CN=Slot-9d
        Subject Public Key Info:
            Public Key Algorithm: rsaEncryption
                Public-Key: (2048 bit)
                Modulus:
                    00:f5:11:6c:43:7d:9f:23:75:b3:6c:21:14:69:c5:
                    ef:a4:9c:6a:42:86:68:9e:5d:70:71:54:7d:59:4d:
                    db:5b:b4:22:7d:b3:c8:13:ca:d1:49:87:62:ab:c0:
                    42:56:80:06:51:8e:46:70:77:57:a0:ec:79:a4:25:
                    11:94:ea:01:00:82:5b:18:02:2a:26:8b:40:81:d9:
                    dc:f4:db:ed:e7:6d:5c:3d:56:ce:d7:13:79:d6:be:
                    b6:df:62:b0:db:b6:fd:a6:3c:da:1e:6f:cc:7a:16:
                    3e:2a:18:84:52:78:27:92:36:94:53:c0:c4:aa:be:
                    d1:cf:80:2f:5c:df:29:a3:a3:c9:6c:54:8a:f3:e0:
                    49:9c:e5:f7:df:97:9c:5f:e9:e6:3c:ff:c2:16:cc:
                    af:da:3f:f3:21:02:d9:f6:b0:11:56:5e:22:52:13:
                    1f:37:fb:8f:52:29:db:51:74:9c:c9:36:d8:64:8e:
                    72:73:da:c4:69:ee:ee:4f:20:8c:88:e2:2a:e2:0b:
                    9e:8e:f6:7d:63:2b:49:7b:e9:dd:22:4c:28:02:69:
                    0b:28:8c:4b:a7:ab:65:ff:6d:57:74:e0:55:f7:12:
                    a9:ec:c6:6e:28:ed:0e:a9:2d:7c:c8:8f:4d:9a:45:
                    09:8c:e3:7e:1b:62:65:2a:47:6c:98:ed:b7:42:34:
                    78:6f
                Exponent: 65537 (0x10001)
        X509v3 extensions:
            X509v3 Basic Constraints: 
                CA:FALSE
            X509v3 Key Usage: critical
                Digital Signature, Key Encipherment
            X509v3 Extended Key Usage: 
                E-mail Protection
            X509v3 Subject Key Identifier: 
                0C:F9:E6:6F:5F:6B:3B:9F:D1:A2:81:F2:8D:95:F7:3D:26:F7:BF:CE
            X509v3 Authority Key Identifier: 
                74:1F:D0:00:A5:7C:69:07:97:18:41:F0:C4:44:18:21:D7:04:1B:EE
            X509v3 CRL Distribution Points: 
                Full Name:
                  URI:https://nathom78.github.io/Thomas-PKI/intermediate-ecc/crl/intermediate-crl.pem

            Authority Information Access: 
                CA Issuers - URI:https://nathom78.github.io/Thomas-PKI/intermediate-ecc/certs/intermediate-cert.pem
            X509v3 Subject Alternative Name: 
                <EMPTY>

    Signature Algorithm: ecdsa-with-SHA384
    Signature Value:
        30:66:02:31:00:f7:ac:94:ba:0e:ee:0f:7c:bc:0d:db:d5:93:
        02:12:2f:5c:da:9d:67:94:8b:f1:b3:b3:44:db:63:e9:26:88:
        b7:ef:9c:4e:49:0c:78:59:9e:27:5c:1c:14:5c:a8:2d:d3:02:
        31:00:8a:92:86:b8:f4:4b:eb:d3:7c:d6:9c:da:84:6c:a1:7a:
        b8:f0:62:8b:51:56:6f:f9:7c:e3:28:c7:b3:e7:b8:16:52:e1:
        c0:04:31:44:f5:39:e3:e0:ff:cd:40:f6:f8:31
-----BEGIN CERTIFICATE-----
MIIDkzCCAxigAwIBAgICIAIwCgYIKoZIzj0EAwMwOTEXMBUGA1UECgwOVGhvb20g
U2VjdXJpdHkxHjAcBgNVBAMMFUNBLVRob29tLUludGVybWVkaWF0ZTAeFw0yNjA1
MDkxNTI0MjdaFw0zMTA1MDgxNTI0MjdaMCsxFzAVBgNVBAoMDlRob29tIFNlY3Vy
aXR5MRAwDgYDVQQDDAdTbG90LTlkMIIBIjANBgkqhkiG9w0BAQEFAAOCAQ8AMIIB
CgKCAQEA9RFsQ32fI3WzbCEUacXvpJxqQoZonl1wcVR9WU3bW7QifbPIE8rRSYdi
q8BCVoAGUY5GcHdXoOx5pCURlOoBAIJbGAIqJotAgdnc9Nvt521cPVbO1xN51r62
32Kw27b9pjzaHm/MehY+KhiEUngnkjaUU8DEqr7Rz4AvXN8po6PJbFSK8+BJnOX3
35ecX+nmPP/CFsyv2j/zIQLZ9rARVl4iUhMfN/uPUinbUXScyTbYZI5yc9rEae7u
TyCMiOIq4guejvZ9YytJe+ndIkwoAmkLKIxLp6tl/21XdOBV9xKp7MZuKO0OqS18
yI9NmkUJjON+G2JlKkdsmO23QjR4bwIDAQABo4IBUTCCAU0wCQYDVR0TBAIwADAO
BgNVHQ8BAf8EBAMCBaAwEwYDVR0lBAwwCgYIKwYBBQUHAwQwHQYDVR0OBBYEFAz5
5m9fazuf0aKB8o2V9z0m97/OMB8GA1UdIwQYMBaAFHQf0AClfGkHlxhB8MREGCHX
BBvuMGAGA1UdHwRZMFcwVaBToFGGT2h0dHBzOi8vbmF0aG9tNzguZ2l0aHViLmlv
L1Rob21hcy1QS0kvaW50ZXJtZWRpYXRlLWVjYy9jcmwvaW50ZXJtZWRpYXRlLWNy
bC5wZW0wbgYIKwYBBQUHAQEEYjBgMF4GCCsGAQUFBzAChlJodHRwczovL25hdGhv
bTc4LmdpdGh1Yi5pby9UaG9tYXMtUEtJL2ludGVybWVkaWF0ZS1lY2MvY2VydHMv
aW50ZXJtZWRpYXRlLWNlcnQucGVtMAkGA1UdEQQCMAAwCgYIKoZIzj0EAwMDaQAw
ZgIxAPeslLoO7g98vA3b1ZMCEi9c2p1nlIvxs7NE22PpJoi375xOSQx4WZ4nXBwU
XKgt0wIxAIqShrj0S+vTfNac2oRsoXq48GKLUVZv+XzjKMez57gWUuHABDFE9Tnj
4P/NQPb4MQ==
-----END CERTIFICATE-----
