Certificate:
    Data:
        Version: 3 (0x2)
        Serial Number: 8197 (0x2005)
        Signature Algorithm: ecdsa-with-SHA384
        Issuer: O=Thoom Security, CN=CA-Thoom-Intermediate
        Validity
            Not Before: May 13 17:20:01 2026 GMT
            Not After : May 12 17:20:01 2031 GMT
        Subject: O=Thoom Security, CN=Slot-9d
        Subject Public Key Info:
            Public Key Algorithm: rsaEncryption
                Public-Key: (2048 bit)
                Modulus:
                    00:e3:20:cf:3b:a6:ae:5b:b5:b9:b0:9d:d9:96:90:
                    60:a9:b0:cd:21:ca:18:42:a0:d4:7f:f8:a7:ca:80:
                    ec:c1:c0:0c:7e:68:c4:4b:0b:f5:6b:97:1b:ff:ba:
                    f9:a6:67:68:7b:9b:e4:6d:e6:e2:91:eb:02:fb:fb:
                    c4:c4:59:af:e0:06:7d:45:d6:6e:0c:19:a0:ec:88:
                    f3:97:73:4a:bb:3e:c7:92:4b:a4:8c:89:b8:64:5a:
                    57:48:4e:bf:f5:69:ef:58:8d:0a:e8:66:cf:1d:0b:
                    0d:26:4a:f4:19:15:ab:c6:e0:d5:69:ca:7c:a4:29:
                    e4:f8:9e:38:3b:d6:36:ce:eb:c8:13:eb:8e:4c:10:
                    db:bf:fc:84:64:98:05:f3:50:54:44:ee:38:bb:65:
                    e5:81:8b:56:63:f6:68:ff:80:cd:c7:81:02:6c:ea:
                    ee:f9:13:9f:18:c6:0c:f5:4b:31:e4:fc:f1:89:d0:
                    6f:37:12:81:0f:aa:7e:f2:be:98:b0:31:92:b3:e7:
                    81:06:94:23:56:b6:78:ba:e1:6f:40:a2:9b:50:94:
                    b7:5e:e6:02:06:e8:75:83:43:4c:a2:32:86:fb:c1:
                    74:b9:48:39:3f:d6:3e:22:73:b3:21:da:ae:f8:82:
                    74:ff:64:c3:1b:55:3b:e2:6b:13:f8:97:4f:e5:c3:
                    f4:bd
                Exponent: 65537 (0x10001)
        X509v3 extensions:
            X509v3 Basic Constraints: 
                CA:FALSE
            X509v3 Key Usage: critical
                Digital Signature, Key Encipherment
            X509v3 Extended Key Usage: 
                E-mail Protection
            X509v3 Subject Key Identifier: 
                82:FB:2F:F6:D3:D1:D4:28:8A:34:99:B7:F6:4D:24:FE:EC:FF:CC:63
            X509v3 Authority Key Identifier: 
                74:1F:D0:00:A5:7C:69:07:97:18:41:F0:C4:44:18:21:D7:04:1B:EE
            X509v3 CRL Distribution Points: 
                Full Name:
                  URI:https://nathom78.github.io/Thomas-PKI/intermediate-ecc/crl/intermediate-crl.pem

            Authority Information Access: 
                CA Issuers - URI:https://nathom78.github.io/Thomas-PKI/intermediate-ecc/certs/intermediate-cert.pem
            X509v3 Subject Alternative Name: 
                email:lecomte_thomas@sfr.fr, email:Natomska@live.fr
    Signature Algorithm: ecdsa-with-SHA384
    Signature Value:
        30:64:02:30:79:81:54:8b:61:c4:32:13:0c:17:2e:50:e6:45:
        32:fe:4b:fb:1d:16:ea:67:01:4f:29:90:2d:13:bd:c0:e5:f0:
        93:5e:8a:dc:4b:47:a5:3d:94:b6:ca:f7:ad:ca:e1:17:02:30:
        0a:e1:13:4f:e2:8d:de:c8:da:4a:2c:4e:6a:26:06:90:5a:d7:
        db:96:d4:18:73:75:a5:e0:39:3a:3d:64:a0:8d:21:4b:f5:78:
        b1:d6:23:54:a2:8d:e8:94:16:99:da:03
-----BEGIN CERTIFICATE-----
MIIDujCCA0GgAwIBAgICIAUwCgYIKoZIzj0EAwMwOTEXMBUGA1UECgwOVGhvb20g
U2VjdXJpdHkxHjAcBgNVBAMMFUNBLVRob29tLUludGVybWVkaWF0ZTAeFw0yNjA1
MTMxNzIwMDFaFw0zMTA1MTIxNzIwMDFaMCsxFzAVBgNVBAoMDlRob29tIFNlY3Vy
aXR5MRAwDgYDVQQDDAdTbG90LTlkMIIBIjANBgkqhkiG9w0BAQEFAAOCAQ8AMIIB
CgKCAQEA4yDPO6auW7W5sJ3ZlpBgqbDNIcoYQqDUf/inyoDswcAMfmjESwv1a5cb
/7r5pmdoe5vkbebikesC+/vExFmv4AZ9RdZuDBmg7Ijzl3NKuz7HkkukjIm4ZFpX
SE6/9WnvWI0K6GbPHQsNJkr0GRWrxuDVacp8pCnk+J44O9Y2zuvIE+uOTBDbv/yE
ZJgF81BURO44u2XlgYtWY/Zo/4DNx4ECbOru+ROfGMYM9Usx5PzxidBvNxKBD6p+
8r6YsDGSs+eBBpQjVrZ4uuFvQKKbUJS3XuYCBuh1g0NMojKG+8F0uUg5P9Y+InOz
Idqu+IJ0/2TDG1U74msT+JdP5cP0vQIDAQABo4IBejCCAXYwCQYDVR0TBAIwADAO
BgNVHQ8BAf8EBAMCBaAwEwYDVR0lBAwwCgYIKwYBBQUHAwQwHQYDVR0OBBYEFIL7
L/bT0dQoijSZt/ZNJP7s/8xjMB8GA1UdIwQYMBaAFHQf0AClfGkHlxhB8MREGCHX
BBvuMGAGA1UdHwRZMFcwVaBToFGGT2h0dHBzOi8vbmF0aG9tNzguZ2l0aHViLmlv
L1Rob21hcy1QS0kvaW50ZXJtZWRpYXRlLWVjYy9jcmwvaW50ZXJtZWRpYXRlLWNy
bC5wZW0wbgYIKwYBBQUHAQEEYjBgMF4GCCsGAQUFBzAChlJodHRwczovL25hdGhv
bTc4LmdpdGh1Yi5pby9UaG9tYXMtUEtJL2ludGVybWVkaWF0ZS1lY2MvY2VydHMv
aW50ZXJtZWRpYXRlLWNlcnQucGVtMDIGA1UdEQQrMCmBFWxlY29tdGVfdGhvbWFz
QHNmci5mcoEQTmF0b21za2FAbGl2ZS5mcjAKBggqhkjOPQQDAwNnADBkAjB5gVSL
YcQyEwwXLlDmRTL+S/sdFupnAU8pkC0TvcDl8JNeitxLR6U9lLbK963K4RcCMArh
E0/ijd7I2kosTmomBpBa19uW1BhzdaXgOTo9ZKCNIUv1eLHWI1SijeiUFpnaAw==
-----END CERTIFICATE-----
